; Function Attrs: inlinehint mustprogress nounwind uwtable
define internal void @_ZN5arrow8internal12_GLOBAL__N_115SerialTaskGroupD0Ev(ptr noundef nonnull align 8 dereferenceable(49) initializes((0, 8)) %0) unnamed_addr #2 align 2 personality ptr @__gxx_personality_v0 {
  store ptr getelementptr inbounds nuw inrange(-16, 64) (i8, ptr @_ZTVN5arrow8internal12_GLOBAL__N_115SerialTaskGroupE, i64 16), ptr %0, align 8, !tbaa !15
  %2 = getelementptr inbounds nuw i8, ptr %0, i64 40
  %3 = load ptr, ptr %2, align 8, !tbaa !17
  %.not.i.i = icmp eq ptr %3, null
  br i1 %.not.i.i, label %_ZN5arrow6StatusD2Ev.exit.i, label %4, !prof !66

4:                                                ; preds = %1
  %5 = getelementptr inbounds nuw i8, ptr %3, i64 1
  %6 = load i8, ptr %5, align 1, !tbaa !67, !range !64, !noundef !65
  %7 = trunc nuw i8 %6 to i1
  br i1 %7, label %_ZN5arrow6StatusD2Ev.exit.i, label %8

8:                                                ; preds = %4
  tail call void @_ZN5arrow6Status11DeleteStateEv(ptr noundef nonnull align 8 dereferenceable(8) %2) #23
  br label %_ZN5arrow6StatusD2Ev.exit.i

_ZN5arrow6StatusD2Ev.exit.i:                      ; preds = %8, %4, %1
  %9 = getelementptr inbounds nuw i8, ptr %0, i64 32
  %10 = load ptr, ptr %9, align 8, !tbaa !11
  %.not.i.i.i.i = icmp eq ptr %10, null
  br i1 %.not.i.i.i.i, label %_ZN5arrow9StopTokenD2Ev.exit.i, label %11

11:                                               ; preds = %_ZN5arrow6StatusD2Ev.exit.i
  %12 = getelementptr inbounds nuw i8, ptr %10, i64 8
  %13 = load atomic i64, ptr %12 acquire, align 8
  %14 = icmp eq i64 %13, 4294967297
  %15 = trunc i64 %13 to i32
  br i1 %14, label %16, label %24

16:                                               ; preds = %11
  store i32 0, ptr %12, align 8, !tbaa !33
  %17 = getelementptr inbounds nuw i8, ptr %10, i64 12
  store i32 0, ptr %17, align 4, !tbaa !35
  %18 = load ptr, ptr %10, align 8, !tbaa !15
  %19 = getelementptr inbounds nuw i8, ptr %18, i64 16
  %20 = load ptr, ptr %19, align 8
  tail call void %20(ptr noundef nonnull align 8 dereferenceable(16) %10) #23
  %21 = load ptr, ptr %10, align 8, !tbaa !15
  %22 = getelementptr inbounds nuw i8, ptr %21, i64 24
  %23 = load ptr, ptr %22, align 8
  tail call void %23(ptr noundef nonnull align 8 dereferenceable(16) %10) #23
  br label %_ZN5arrow9StopTokenD2Ev.exit.i

24:                                               ; preds = %11
  %25 = load i8, ptr @__libc_single_threaded, align 1, !tbaa !12
  %.not.i.i.i.i.i = icmp eq i8 %25, 0
  br i1 %.not.i.i.i.i.i, label %28, label %26

26:                                               ; preds = %24
  %27 = add nsw i32 %15, -1
  store i32 %27, ptr %12, align 4, !tbaa !13
  br label %_ZN9__gnu_cxx27__exchange_and_add_dispatchEPii.exit.i.i.i.i.i

28:                                               ; preds = %24
  %29 = atomicrmw volatile add ptr %12, i32 -1 acq_rel, align 4
  br label %_ZN9__gnu_cxx27__exchange_and_add_dispatchEPii.exit.i.i.i.i.i

_ZN9__gnu_cxx27__exchange_and_add_dispatchEPii.exit.i.i.i.i.i: ; preds = %28, %26
  %.0.i.i.i.i.i.i = phi i32 [ %15, %26 ], [ %29, %28 ]
  %30 = icmp eq i32 %.0.i.i.i.i.i.i, 1
  br i1 %30, label %31, label %_ZN5arrow9StopTokenD2Ev.exit.i, !prof !41

31:                                               ; preds = %_ZN9__gnu_cxx27__exchange_and_add_dispatchEPii.exit.i.i.i.i.i
  tail call void @_ZNSt16_Sp_counted_baseILN9__gnu_cxx12_Lock_policyE2EE24_M_release_last_use_coldEv(ptr noundef nonnull align 8 dereferenceable(16) %10) #23
  br label %_ZN5arrow9StopTokenD2Ev.exit.i

_ZN5arrow9StopTokenD2Ev.exit.i:                   ; preds = %31, %_ZN9__gnu_cxx27__exchange_and_add_dispatchEPii.exit.i.i.i.i.i, %16, %_ZN5arrow6StatusD2Ev.exit.i
  %32 = getelementptr inbounds nuw i8, ptr %0, i64 16
  %33 = load ptr, ptr %32, align 8, !tbaa !40
  %.not.i.i.i.i1.i = icmp eq ptr %33, null
  br i1 %.not.i.i.i.i1.i, label %_ZN5arrow8internal12_GLOBAL__N_115SerialTaskGroupD2Ev.exit, label %34

34:                                               ; preds = %_ZN5arrow9StopTokenD2Ev.exit.i
  %35 = getelementptr inbounds nuw i8, ptr %33, i64 12
  %36 = load i8, ptr @__libc_single_threaded, align 1, !tbaa !12
  %.not.i.i.i.i.i.i = icmp eq i8 %36, 0
  br i1 %.not.i.i.i.i.i.i, label %40, label %37

37:                                               ; preds = %34
  %38 = load i32, ptr %35, align 4, !tbaa !13
  %39 = add nsw i32 %38, -1
  store i32 %39, ptr %35, align 4, !tbaa !13
  br label %_ZN9__gnu_cxx27__exchange_and_add_dispatchEPii.exit.i.i.i.i.i.i

40:                                               ; preds = %34
  %41 = atomicrmw volatile add ptr %35, i32 -1 acq_rel, align 4
  br label %_ZN9__gnu_cxx27__exchange_and_add_dispatchEPii.exit.i.i.i.i.i.i

_ZN9__gnu_cxx27__exchange_and_add_dispatchEPii.exit.i.i.i.i.i.i: ; preds = %40, %37
  %.0.i.i.i.i.i.i.i = phi i32 [ %38, %37 ], [ %41, %40 ]
  %42 = icmp eq i32 %.0.i.i.i.i.i.i.i, 1
  br i1 %42, label %43, label %_ZN5arrow8internal12_GLOBAL__N_115SerialTaskGroupD2Ev.exit

43:                                               ; preds = %_ZN9__gnu_cxx27__exchange_and_add_dispatchEPii.exit.i.i.i.i.i.i
  %44 = load ptr, ptr %33, align 8, !tbaa !15
  %45 = getelementptr inbounds nuw i8, ptr %44, i64 24
  %46 = load ptr, ptr %45, align 8
  tail call void %46(ptr noundef nonnull align 8 dereferenceable(16) %33) #23
  br label %_ZN5arrow8internal12_GLOBAL__N_115SerialTaskGroupD2Ev.exit

_ZN5arrow8internal12_GLOBAL__N_115SerialTaskGroupD2Ev.exit: ; preds = %_ZN5arrow9StopTokenD2Ev.exit.i, %_ZN9__gnu_cxx27__exchange_and_add_dispatchEPii.exit.i.i.i.i.i.i, %43
  tail call void @_ZdlPvm(ptr noundef nonnull %0, i64 noundef 56) #26
  ret void
}